; Function Attrs: mustprogress nofree norecurse nosync nounwind willreturn memory(argmem: readwrite) uwtable
define hidden void @_ZN6spacer17unsat_core_pluginC2ERNS_18unsat_core_learnerE(ptr noundef nonnull writeonly align 8 captures(none) dereferenceable(24) initializes((0, 24)) %0, ptr noundef nonnull align 8 dereferenceable(104) %1) unnamed_addr #3 align 2 {
  store ptr getelementptr inbounds nuw inrange(-16, 32) (i8, ptr @_ZTVN6spacer17unsat_core_pluginE, i64 16), ptr %0, align 8, !tbaa !3
  %3 = getelementptr inbounds nuw i8, ptr %0, i64 8
  %4 = getelementptr inbounds nuw i8, ptr %1, i64 8
  %5 = load ptr, ptr %4, align 8, !tbaa !6
  store ptr %5, ptr %3, align 8, !tbaa !30
  %6 = getelementptr inbounds nuw i8, ptr %0, i64 16
  store ptr %1, ptr %6, align 8, !tbaa !31
  ret void
}